target datalayout = "e-m:e-p270:32:32-p271:32:32-p272:64:64-i64:64-i128:128-f80:128-n8:16:32:64-S128"
target triple = "x86_64-pc-linux-gnu"

%struct.tcg_region_state = type { %struct.QemuMutex, ptr, ptr, i64, i64, i64, i64, i64, i64 }
%struct.QemuMutex = type { %union.pthread_mutex_t, i8 }
%union.pthread_mutex_t = type { %struct.__pthread_mutex_s }
%struct.__pthread_mutex_s = type { i32, i32, i32, i32, i32, i16, i16, %struct.__pthread_internal_list }
%struct.__pthread_internal_list = type { ptr, ptr }
%struct.TCGContext = type { ptr, ptr, ptr, ptr, ptr, i32, i32, i32, i32, i32, i32, i32, i8, i8, i8, i32, i32, i64, i64, i64, ptr, ptr, ptr, ptr, ptr, i64, ptr, ptr, ptr, ptr, %struct.anon, ptr, ptr, ptr, ptr, ptr, [6 x ptr], [6 x %struct.TCGTempSet], [512 x %struct.TCGTemp], %union.anon, %union.anon, %struct.anon.0, ptr, [32 x ptr], [512 x i16], ptr, [1 x %struct.__jmp_buf_tag] }
%struct.anon = type { ptr, ptr }
%struct.TCGTempSet = type { [8 x i64] }
%struct.TCGTemp = type { i64, i64, ptr, i64, ptr, i64, ptr }
%union.anon = type { %struct.QTailQLink }
%struct.QTailQLink = type { ptr, ptr }
%struct.anon.0 = type { ptr, ptr }
%struct.__jmp_buf_tag = type { [8 x i64], i32, %struct.__sigset_t }
%struct.__sigset_t = type { [16 x i64] }

@region = internal global %struct.tcg_region_state zeroinitializer, align 8
@.str = private unnamed_addr constant [21 x i8] c"../qemu/tcg/region.c\00", align 1
@tcg_splitwx_diff = external global i64, align 8
@__func__.tcg_region_prologue_set = private unnamed_addr constant [24 x i8] c"tcg_region_prologue_set\00", align 1
@.str.5 = private unnamed_addr constant [43 x i8] c"region.start_aligned == s->code_gen_buffer\00", align 1

; Function Attrs: nounwind sspstrong uwtable
define internal void @tcg_region_bounds(i64 noundef %0, ptr noundef %1, ptr noundef %2) #0 {
  %4 = alloca i64, align 8
  %5 = alloca ptr, align 8
  %6 = alloca ptr, align 8
  %7 = alloca ptr, align 8
  %8 = alloca ptr, align 8
  store i64 %0, ptr %4, align 8
  store ptr %1, ptr %5, align 8
  store ptr %2, ptr %6, align 8
  call void @llvm.lifetime.start.p0(i64 8, ptr %7) #11
  store ptr null, ptr %7, align 8, !annotation !4
  call void @llvm.lifetime.start.p0(i64 8, ptr %8) #11
  store ptr null, ptr %8, align 8, !annotation !4
  %9 = load ptr, ptr getelementptr inbounds nuw (%struct.tcg_region_state, ptr @region, i32 0, i32 1), align 8
  %10 = load i64, ptr %4, align 8
  %11 = load i64, ptr getelementptr inbounds nuw (%struct.tcg_region_state, ptr @region, i32 0, i32 5), align 8
  %12 = mul i64 %10, %11
  %13 = getelementptr inbounds nuw i8, ptr %9, i64 %12
  store ptr %13, ptr %7, align 8
  %14 = load ptr, ptr %7, align 8
  %15 = load i64, ptr getelementptr inbounds nuw (%struct.tcg_region_state, ptr @region, i32 0, i32 4), align 8
  %16 = getelementptr inbounds nuw i8, ptr %14, i64 %15
  store ptr %16, ptr %8, align 8
  %17 = load i64, ptr %4, align 8
  %18 = icmp eq i64 %17, 0
  br i1 %18, label %19, label %21

19:                                               ; preds = %3
  %20 = load ptr, ptr getelementptr inbounds nuw (%struct.tcg_region_state, ptr @region, i32 0, i32 2), align 8
  store ptr %20, ptr %7, align 8
  br label %21

21:                                               ; preds = %19, %3
  %22 = load i64, ptr %4, align 8
  %23 = load i64, ptr getelementptr inbounds nuw (%struct.tcg_region_state, ptr @region, i32 0, i32 3), align 8
  %24 = sub i64 %23, 1
  %25 = icmp eq i64 %22, %24
  br i1 %25, label %26, label %30

26:                                               ; preds = %21
  %27 = load ptr, ptr getelementptr inbounds nuw (%struct.tcg_region_state, ptr @region, i32 0, i32 1), align 8
  %28 = load i64, ptr getelementptr inbounds nuw (%struct.tcg_region_state, ptr @region, i32 0, i32 6), align 8
  %29 = getelementptr inbounds nuw i8, ptr %27, i64 %28
  store ptr %29, ptr %8, align 8
  br label %30

30:                                               ; preds = %26, %21
  %31 = load ptr, ptr %7, align 8
  %32 = load ptr, ptr %5, align 8
  store ptr %31, ptr %32, align 8
  %33 = load ptr, ptr %8, align 8
  %34 = load ptr, ptr %6, align 8
  store ptr %33, ptr %34, align 8
  call void @llvm.lifetime.end.p0(i64 8, ptr %8) #11
  call void @llvm.lifetime.end.p0(i64 8, ptr %7) #11
  ret void
}

; Function Attrs: inlinehint nounwind sspstrong uwtable
define internal ptr @tcg_splitwx_to_rx(ptr noundef %0) #7 {
  %2 = alloca ptr, align 8
  store ptr %0, ptr %2, align 8
  %3 = load ptr, ptr %2, align 8
  %4 = icmp ne ptr %3, null
  br i1 %4, label %5, label %9

5:                                                ; preds = %1
  %6 = load ptr, ptr %2, align 8
  %7 = load i64, ptr @tcg_splitwx_diff, align 8
  %8 = getelementptr inbounds nuw i8, ptr %6, i64 %7
  br label %10

9:                                                ; preds = %1
  br label %10

10:                                               ; preds = %9, %5
  %11 = phi ptr [ %8, %5 ], [ null, %9 ]
  ret ptr %11
}

; Function Attrs: nounwind sspstrong uwtable
define internal void @tcg_region_assign(ptr noundef %0, i64 noundef %1) #0 {
  %3 = alloca ptr, align 8
  %4 = alloca i64, align 8
  %5 = alloca ptr, align 8
  %6 = alloca ptr, align 8
  store ptr %0, ptr %3, align 8
  store i64 %1, ptr %4, align 8
  call void @llvm.lifetime.start.p0(i64 8, ptr %5) #11
  store ptr null, ptr %5, align 8, !annotation !4
  call void @llvm.lifetime.start.p0(i64 8, ptr %6) #11
  store ptr null, ptr %6, align 8, !annotation !4
  %7 = load i64, ptr %4, align 8
  call void @tcg_region_bounds(i64 noundef %7, ptr noundef %5, ptr noundef %6)
  %8 = load ptr, ptr %5, align 8
  %9 = load ptr, ptr %3, align 8
  %10 = getelementptr inbounds nuw %struct.TCGContext, ptr %9, i32 0, i32 24
  store ptr %8, ptr %10, align 8
  %11 = load ptr, ptr %5, align 8
  %12 = load ptr, ptr %3, align 8
  %13 = getelementptr inbounds nuw %struct.TCGContext, ptr %12, i32 0, i32 26
  store ptr %11, ptr %13, align 8
  %14 = load ptr, ptr %6, align 8
  %15 = load ptr, ptr %5, align 8
  %16 = ptrtoint ptr %14 to i64
  %17 = ptrtoint ptr %15 to i64
  %18 = sub i64 %16, %17
  %19 = load ptr, ptr %3, align 8
  %20 = getelementptr inbounds nuw %struct.TCGContext, ptr %19, i32 0, i32 25
  store i64 %18, ptr %20, align 8
  %21 = load ptr, ptr %6, align 8
  %22 = getelementptr inbounds i8, ptr %21, i64 -1024
  %23 = load ptr, ptr %3, align 8
  %24 = getelementptr inbounds nuw %struct.TCGContext, ptr %23, i32 0, i32 28
  store ptr %22, ptr %24, align 8
  call void @llvm.lifetime.end.p0(i64 8, ptr %6) #11
  call void @llvm.lifetime.end.p0(i64 8, ptr %5) #11
  ret void
}

; Function Attrs: nounwind sspstrong uwtable
define dso_local void @tcg_region_prologue_set(ptr noundef %0) #0 {
  %2 = alloca ptr, align 8
  %3 = alloca i32, align 4
  %4 = alloca i32, align 4
  store ptr %0, ptr %2, align 8
  br label %5

5:                                                ; preds = %1
  call void @llvm.lifetime.start.p0(i64 4, ptr %3) #11
  store i32 0, ptr %3, align 4, !annotation !4
  %6 = load ptr, ptr getelementptr inbounds nuw (%struct.tcg_region_state, ptr @region, i32 0, i32 1), align 8
  %7 = load ptr, ptr %2, align 8
  %8 = getelementptr inbounds nuw %struct.TCGContext, ptr %7, i32 0, i32 24
  %9 = load ptr, ptr %8, align 8
  %10 = icmp eq ptr %6, %9
  br i1 %10, label %11, label %12

11:                                               ; preds = %5
  store i32 1, ptr %3, align 4
  br label %13

12:                                               ; preds = %5
  store i32 0, ptr %3, align 4
  br label %13

13:                                               ; preds = %12, %11
  %14 = load i32, ptr %3, align 4
  store i32 %14, ptr %4, align 4
  call void @llvm.lifetime.end.p0(i64 4, ptr %3) #11
  %15 = load i32, ptr %4, align 4
  %16 = sext i32 %15 to i64
  %17 = call i64 @llvm.expect.i64(i64 %16, i64 1)
  %18 = icmp ne i64 %17, 0
  br i1 %18, label %19, label %20

19:                                               ; preds = %13
  br label %21

20:                                               ; preds = %13
  call void @g_assertion_message_expr(ptr noundef null, ptr noundef @.str, i32 noundef 866, ptr noundef @__func__.tcg_region_prologue_set, ptr noundef @.str.5) #12
  unreachable

21:                                               ; preds = %19
  br label %22

22:                                               ; preds = %21
  %23 = load ptr, ptr %2, align 8
  %24 = getelementptr inbounds nuw %struct.TCGContext, ptr %23, i32 0, i32 23
  %25 = load ptr, ptr %24, align 8
  store ptr %25, ptr getelementptr inbounds nuw (%struct.tcg_region_state, ptr @region, i32 0, i32 2), align 8
  %26 = load ptr, ptr %2, align 8
  call void @tcg_region_assign(ptr noundef %26, i64 noundef 0)
  %27 = load ptr, ptr getelementptr inbounds nuw (%struct.tcg_region_state, ptr @region, i32 0, i32 2), align 8
  %28 = call ptr @tcg_splitwx_to_rx(ptr noundef %27)
  %29 = load ptr, ptr getelementptr inbounds nuw (%struct.tcg_region_state, ptr @region, i32 0, i32 1), align 8
  %30 = load i64, ptr getelementptr inbounds nuw (%struct.tcg_region_state, ptr @region, i32 0, i32 6), align 8
  %31 = getelementptr inbounds nuw i8, ptr %29, i64 %30
  %32 = load ptr, ptr getelementptr inbounds nuw (%struct.tcg_region_state, ptr @region, i32 0, i32 2), align 8
  %33 = ptrtoint ptr %31 to i64
  %34 = ptrtoint ptr %32 to i64
  %35 = sub i64 %33, %34
  call void @tcg_register_jit(ptr noundef %28, i64 noundef %35)
  ret void
}