; Function Attrs: nounwind sspstrong uwtable
define dso_local void @tcg_region_prologue_set(ptr noundef captures(none) %0) local_unnamed_addr #1 {
  %2 = load ptr, ptr getelementptr inbounds nuw (i8, ptr @region, i64 48), align 8
  %3 = getelementptr inbounds nuw i8, ptr %0, i64 136
  %4 = load ptr, ptr %3, align 8
  %.not = icmp eq ptr %2, %4
  br i1 %.not, label %6, label %5, !prof !17

5:                                                ; preds = %1
  tail call void @g_assertion_message_expr(ptr noundef null, ptr noundef nonnull @.str, i32 noundef 866, ptr noundef nonnull @__func__.tcg_region_prologue_set, ptr noundef nonnull @.str.5) #11
  unreachable

6:                                                ; preds = %1
  %7 = getelementptr inbounds nuw i8, ptr %0, i64 128
  %8 = load ptr, ptr %7, align 8
  store ptr %8, ptr getelementptr inbounds nuw (i8, ptr @region, i64 56), align 8
  %9 = load i64, ptr getelementptr inbounds nuw (i8, ptr @region, i64 72), align 8
  %10 = getelementptr inbounds nuw i8, ptr %2, i64 %9
  %11 = load i64, ptr getelementptr inbounds nuw (i8, ptr @region, i64 64), align 8
  %12 = icmp eq i64 %11, 1
  %13 = load i64, ptr getelementptr inbounds nuw (i8, ptr @region, i64 88), align 8
  %14 = getelementptr inbounds nuw i8, ptr %2, i64 %13
  %.0.i.i = select i1 %12, ptr %14, ptr %10
  store ptr %8, ptr %3, align 8
  %15 = getelementptr inbounds nuw i8, ptr %0, i64 152
  store ptr %8, ptr %15, align 8
  %16 = ptrtoint ptr %.0.i.i to i64
  %17 = ptrtoint ptr %8 to i64
  %18 = sub i64 %16, %17
  %19 = getelementptr inbounds nuw i8, ptr %0, i64 144
  store i64 %18, ptr %19, align 8
  %20 = getelementptr inbounds i8, ptr %.0.i.i, i64 -1024
  %21 = getelementptr inbounds nuw i8, ptr %0, i64 168
  store ptr %20, ptr %21, align 8
  %.not.i = icmp eq ptr %8, null
  %22 = load i64, ptr @tcg_splitwx_diff, align 8
  %23 = getelementptr inbounds nuw i8, ptr %8, i64 %22
  %24 = select i1 %.not.i, ptr null, ptr %23
  %25 = ptrtoint ptr %14 to i64
  %26 = sub i64 %25, %17
  tail call void @tcg_register_jit(ptr noundef %24, i64 noundef %26) #12
  ret void
}